target datalayout = "e-m:e-p270:32:32-p271:32:32-p272:64:64-i64:64-i128:128-f80:128-n8:16:32:64-S128"
target triple = "x86_64-unknown-linux-gnu"

%"class.net::QuicWallTime" = type { i64 }
%"class.base::BasicStringPiece" = type { ptr, i64 }
%"class.net::SourceAddressTokens" = type { %"class.google::protobuf::MessageLite", %"struct.google::protobuf::internal::ArenaStringPtr", ptr, [1 x i32], i32, %"class.google::protobuf::RepeatedPtrField" }
%"class.google::protobuf::MessageLite" = type { ptr }
%"struct.google::protobuf::internal::ArenaStringPtr" = type { ptr }
%"class.google::protobuf::RepeatedPtrField" = type { %"class.google::protobuf::internal::RepeatedPtrFieldBase" }
%"class.google::protobuf::internal::RepeatedPtrFieldBase" = type { ptr, i32, i32, ptr }
%"class.std::vector.0" = type { %"struct.std::_Vector_base.1" }
%"struct.std::_Vector_base.1" = type { %"struct.std::_Vector_base<unsigned int, std::allocator<unsigned int>>::_Vector_impl" }
%"struct.std::_Vector_base<unsigned int, std::allocator<unsigned int>>::_Vector_impl" = type { %"struct.std::_Vector_base<unsigned int, std::allocator<unsigned int>>::_Vector_impl_data" }
%"struct.std::_Vector_base<unsigned int, std::allocator<unsigned int>>::_Vector_impl_data" = type { ptr, ptr, ptr }
%"class.std::map" = type { %"class.std::_Rb_tree" }
%"class.std::_Rb_tree" = type { %"struct.std::_Rb_tree<unsigned int, std::pair<const unsigned int, std::__cxx11::basic_string<char>>, std::_Select1st<std::pair<const unsigned int, std::__cxx11::basic_string<char>>>, std::less<unsigned int>>::_Rb_tree_impl" }
%"struct.std::_Rb_tree<unsigned int, std::pair<const unsigned int, std::__cxx11::basic_string<char>>, std::_Select1st<std::pair<const unsigned int, std::__cxx11::basic_string<char>>>, std::less<unsigned int>>::_Rb_tree_impl" = type { %"struct.std::_Rb_tree_key_compare", %"struct.std::_Rb_tree_header" }
%"struct.std::_Rb_tree_key_compare" = type { %"struct.std::less" }
%"struct.std::less" = type { i8 }
%"struct.std::_Rb_tree_header" = type { %"struct.std::_Rb_tree_node_base", i64 }
%"struct.std::_Rb_tree_node_base" = type { i32, ptr, ptr, ptr }
%"class.std::__cxx11::basic_string" = type { %"struct.std::__cxx11::basic_string<char>::_Alloc_hider", i64, %union.anon }
%"struct.std::__cxx11::basic_string<char>::_Alloc_hider" = type { ptr }
%union.anon = type { i64, [8 x i8] }
%"class.net::QuicCryptoServerConfig::Config" = type { ptr, %"class.net::QuicCryptoConfig", %"class.base::RefCounted", %"class.std::__cxx11::basic_string", %"class.std::__cxx11::basic_string", [8 x i8], %"class.std::vector.128", %"class.std::map", i8, i8, %"class.net::QuicWallTime", %"class.net::QuicWallTime", i64, ptr, %"class.std::unique_ptr.133" }
%"class.net::QuicCryptoConfig" = type { %"class.std::vector.0", %"class.std::vector.0", %"class.std::vector.0", ptr }
%"class.base::RefCounted" = type { %"class.base::subtle::RefCountedBase" }
%"class.base::subtle::RefCountedBase" = type { i32 }
%"class.std::vector.128" = type { %"struct.std::_Vector_base.129" }
%"struct.std::_Vector_base.129" = type { %"struct.std::_Vector_base<net::KeyExchange *, std::allocator<net::KeyExchange *>>::_Vector_impl" }
%"struct.std::_Vector_base<net::KeyExchange *, std::allocator<net::KeyExchange *>>::_Vector_impl" = type { %"struct.std::_Vector_base<net::KeyExchange *, std::allocator<net::KeyExchange *>>::_Vector_impl_data" }
%"struct.std::_Vector_base<net::KeyExchange *, std::allocator<net::KeyExchange *>>::_Vector_impl_data" = type { ptr, ptr, ptr }
%"class.std::unique_ptr.133" = type { %"struct.std::__uniq_ptr_data.134" }
%"struct.std::__uniq_ptr_data.134" = type { %"class.std::__uniq_ptr_impl.135" }
%"class.std::__uniq_ptr_impl.135" = type { %"class.std::tuple.136" }
%"class.std::tuple.136" = type { %"struct.std::_Tuple_impl.137" }
%"struct.std::_Tuple_impl.137" = type { %"struct.std::_Head_base.140" }
%"struct.std::_Head_base.140" = type { ptr }
%"class.net::SourceAddressToken" = type { %"class.google::protobuf::MessageLite", %"struct.google::protobuf::internal::ArenaStringPtr", ptr, [1 x i32], i32, %"struct.google::protobuf::internal::ArenaStringPtr", i64, ptr }

; Function Attrs: mustprogress uwtable
define linkonce_odr dso_local noundef ptr @_ZN6google8protobuf16RepeatedPtrFieldIN3net18SourceAddressTokenEE3AddEv(ptr noundef nonnull align 8 dereferenceable(24) %this) #0 comdat align 2 {
entry:
  %this.addr = alloca ptr, align 8
  store ptr %this, ptr %this.addr, align 8
  %this1 = load ptr, ptr %this.addr, align 8
  %call = call noundef ptr @_ZN6google8protobuf8internal20RepeatedPtrFieldBase3AddINS0_16RepeatedPtrFieldIN3net18SourceAddressTokenEE11TypeHandlerEEEPNT_4TypeESB_(ptr noundef nonnull align 8 dereferenceable(24) %this1, ptr noundef null)
  ret ptr %call
}

; Function Attrs: mustprogress uwtable
define linkonce_odr dso_local noundef nonnull align 8 dereferenceable(56) ptr @_ZN3net18SourceAddressTokenaSERKS0_(ptr noundef nonnull align 8 dereferenceable(56) %this, ptr noundef nonnull align 8 dereferenceable(56) %from) #0 comdat align 2 {
entry:
  %this.addr = alloca ptr, align 8
  %from.addr = alloca ptr, align 8
  store ptr %this, ptr %this.addr, align 8
  store ptr %from, ptr %from.addr, align 8
  %this1 = load ptr, ptr %this.addr, align 8
  %0 = load ptr, ptr %from.addr, align 8
  call void @_ZN3net18SourceAddressToken8CopyFromERKS0_(ptr noundef nonnull align 8 dereferenceable(56) %this1, ptr noundef nonnull align 8 dereferenceable(56) %0)
  ret ptr %this1
}

; Function Attrs: mustprogress uwtable
define linkonce_odr dso_local noundef ptr @_ZN3net19SourceAddressTokens10add_tokensEv(ptr noundef nonnull align 8 dereferenceable(56) %this) #0 comdat align 2 {
entry:
  %this.addr = alloca ptr, align 8
  store ptr %this, ptr %this.addr, align 8
  %this1 = load ptr, ptr %this.addr, align 8
  %tokens_ = getelementptr inbounds %"class.net::SourceAddressTokens", ptr %this1, i32 0, i32 5
  %call = call noundef ptr @_ZN6google8protobuf16RepeatedPtrFieldIN3net18SourceAddressTokenEE3AddEv(ptr noundef nonnull align 8 dereferenceable(24) %tokens_)
  ret ptr %call
}

; Function Attrs: mustprogress uwtable
define dso_local noundef i32 @_ZNK3net22QuicCryptoServerConfig23ParseSourceAddressTokenERKNS0_6ConfigEN4base16BasicStringPieceINSt7__cxx1112basic_stringIcSt11char_traitsIcESaIcEEEEEPNS_19SourceAddressTokensE(ptr noundef nonnull align 8 dereferenceable(405) %this, ptr noundef nonnull align 8 dereferenceable(288) %config, ptr %token.coerce0, i64 %token.coerce1, ptr noundef %tokens) #0 align 2 personality ptr @__gxx_personality_v0 {
entry:
  %retval = alloca i32, align 4
  %token = alloca %"class.base::BasicStringPiece", align 8
  %this.addr = alloca ptr, align 8
  %config.addr = alloca ptr, align 8
  %tokens.addr = alloca ptr, align 8
  %storage = alloca %"class.std::__cxx11::basic_string", align 8
  %plaintext = alloca %"class.base::BasicStringPiece", align 8
  %exn.slot = alloca ptr, align 8
  %ehselector.slot = alloca i32, align 4
  %agg.tmp = alloca %"class.base::BasicStringPiece", align 8
  %cleanup.dest.slot = alloca i32, align 4
  %source_address_token = alloca %"class.net::SourceAddressToken", align 8
  %0 = getelementptr inbounds { ptr, i64 }, ptr %token, i32 0, i32 0
  store ptr %token.coerce0, ptr %0, align 8
  %1 = getelementptr inbounds { ptr, i64 }, ptr %token, i32 0, i32 1
  store i64 %token.coerce1, ptr %1, align 8
  store ptr %this, ptr %this.addr, align 8
  store ptr %config, ptr %config.addr, align 8
  store ptr %tokens, ptr %tokens.addr, align 8
  call void @_ZNSt7__cxx1112basic_stringIcSt11char_traitsIcESaIcEEC1Ev(ptr noundef nonnull align 8 dereferenceable(32) %storage) #14
  invoke void @_ZN4base16BasicStringPieceINSt7__cxx1112basic_stringIcSt11char_traitsIcESaIcEEEEC1Ev(ptr noundef nonnull align 8 dereferenceable(16) %plaintext)
          to label %invoke.cont unwind label %lpad

invoke.cont:                                      ; preds = %entry
  %2 = load ptr, ptr %config.addr, align 8
  %source_address_token_boxer = getelementptr inbounds %"class.net::QuicCryptoServerConfig::Config", ptr %2, i32 0, i32 13
  %3 = load ptr, ptr %source_address_token_boxer, align 8
  call void @llvm.memcpy.p0.p0.i64(ptr align 8 %agg.tmp, ptr align 8 %token, i64 16, i1 false)
  %4 = getelementptr inbounds { ptr, i64 }, ptr %agg.tmp, i32 0, i32 0
  %5 = load ptr, ptr %4, align 8
  %6 = getelementptr inbounds { ptr, i64 }, ptr %agg.tmp, i32 0, i32 1
  %7 = load i64, ptr %6, align 8
  %call = invoke noundef zeroext i1 @_ZNK3net17CryptoSecretBoxer5UnboxEN4base16BasicStringPieceINSt7__cxx1112basic_stringIcSt11char_traitsIcESaIcEEEEEPS8_PS9_(ptr noundef nonnull align 8 dereferenceable(64) %3, ptr %5, i64 %7, ptr noundef %storage, ptr noundef %plaintext)
          to label %invoke.cont2 unwind label %lpad

invoke.cont2:                                     ; preds = %invoke.cont
  br i1 %call, label %if.end, label %if.then

if.then:                                          ; preds = %invoke.cont2
  store i32 15, ptr %retval, align 4
  store i32 1, ptr %cleanup.dest.slot, align 4
  br label %cleanup26

lpad:                                             ; preds = %if.then9, %invoke.cont5, %invoke.cont3, %if.end, %invoke.cont, %entry
  %8 = landingpad { ptr, i32 }
          cleanup
  %9 = extractvalue { ptr, i32 } %8, 0
  store ptr %9, ptr %exn.slot, align 8
  %10 = extractvalue { ptr, i32 } %8, 1
  store i32 %10, ptr %ehselector.slot, align 4
  br label %ehcleanup

if.end:                                           ; preds = %invoke.cont2
  %11 = load ptr, ptr %tokens.addr, align 8
  %call4 = invoke noundef ptr @_ZNK4base16BasicStringPieceINSt7__cxx1112basic_stringIcSt11char_traitsIcESaIcEEEE4dataEv(ptr noundef nonnull align 8 dereferenceable(16) %plaintext)
          to label %invoke.cont3 unwind label %lpad

invoke.cont3:                                     ; preds = %if.end
  %call6 = invoke noundef i64 @_ZNK4base16BasicStringPieceINSt7__cxx1112basic_stringIcSt11char_traitsIcESaIcEEEE4sizeEv(ptr noundef nonnull align 8 dereferenceable(16) %plaintext)
          to label %invoke.cont5 unwind label %lpad

invoke.cont5:                                     ; preds = %invoke.cont3
  %conv = trunc i64 %call6 to i32
  %call8 = invoke noundef zeroext i1 @_ZN6google8protobuf11MessageLite14ParseFromArrayEPKvi(ptr noundef nonnull align 8 dereferenceable(8) %11, ptr noundef %call4, i32 noundef %conv)
          to label %invoke.cont7 unwind label %lpad

invoke.cont7:                                     ; preds = %invoke.cont5
  br i1 %call8, label %if.end25, label %if.then9

if.then9:                                         ; preds = %invoke.cont7
  invoke void @_ZN3net18SourceAddressTokenC1Ev(ptr noundef nonnull align 8 dereferenceable(56) %source_address_token)
          to label %invoke.cont10 unwind label %lpad

invoke.cont10:                                    ; preds = %if.then9
  %call13 = invoke noundef ptr @_ZNK4base16BasicStringPieceINSt7__cxx1112basic_stringIcSt11char_traitsIcESaIcEEEE4dataEv(ptr noundef nonnull align 8 dereferenceable(16) %plaintext)
          to label %invoke.cont12 unwind label %lpad11

invoke.cont12:                                    ; preds = %invoke.cont10
  %call15 = invoke noundef i64 @_ZNK4base16BasicStringPieceINSt7__cxx1112basic_stringIcSt11char_traitsIcESaIcEEEE4sizeEv(ptr noundef nonnull align 8 dereferenceable(16) %plaintext)
          to label %invoke.cont14 unwind label %lpad11

invoke.cont14:                                    ; preds = %invoke.cont12
  %conv16 = trunc i64 %call15 to i32
  %call18 = invoke noundef zeroext i1 @_ZN6google8protobuf11MessageLite14ParseFromArrayEPKvi(ptr noundef nonnull align 8 dereferenceable(8) %source_address_token, ptr noundef %call13, i32 noundef %conv16)
          to label %invoke.cont17 unwind label %lpad11

invoke.cont17:                                    ; preds = %invoke.cont14
  br i1 %call18, label %if.end20, label %if.then19

if.then19:                                        ; preds = %invoke.cont17
  store i32 16, ptr %retval, align 4
  store i32 1, ptr %cleanup.dest.slot, align 4
  br label %cleanup

lpad11:                                           ; preds = %invoke.cont21, %if.end20, %invoke.cont14, %invoke.cont12, %invoke.cont10
  %12 = landingpad { ptr, i32 }
          cleanup
  %13 = extractvalue { ptr, i32 } %12, 0
  store ptr %13, ptr %exn.slot, align 8
  %14 = extractvalue { ptr, i32 } %12, 1
  store i32 %14, ptr %ehselector.slot, align 4
  call void @_ZN3net18SourceAddressTokenD1Ev(ptr noundef nonnull align 8 dereferenceable(56) %source_address_token) #14
  br label %ehcleanup

if.end20:                                         ; preds = %invoke.cont17
  %15 = load ptr, ptr %tokens.addr, align 8
  %call22 = invoke noundef ptr @_ZN3net19SourceAddressTokens10add_tokensEv(ptr noundef nonnull align 8 dereferenceable(56) %15)
          to label %invoke.cont21 unwind label %lpad11

invoke.cont21:                                    ; preds = %if.end20
  %call24 = invoke noundef nonnull align 8 dereferenceable(56) ptr @_ZN3net18SourceAddressTokenaSERKS0_(ptr noundef nonnull align 8 dereferenceable(56) %call22, ptr noundef nonnull align 8 dereferenceable(56) %source_address_token)
          to label %invoke.cont23 unwind label %lpad11

invoke.cont23:                                    ; preds = %invoke.cont21
  store i32 0, ptr %cleanup.dest.slot, align 4
  br label %cleanup

cleanup:                                          ; preds = %invoke.cont23, %if.then19
  call void @_ZN3net18SourceAddressTokenD1Ev(ptr noundef nonnull align 8 dereferenceable(56) %source_address_token) #14
  %cleanup.dest = load i32, ptr %cleanup.dest.slot, align 4
  switch i32 %cleanup.dest, label %cleanup26 [
    i32 0, label %cleanup.cont
  ]

cleanup.cont:                                     ; preds = %cleanup
  br label %if.end25

if.end25:                                         ; preds = %cleanup.cont, %invoke.cont7
  store i32 0, ptr %retval, align 4
  store i32 1, ptr %cleanup.dest.slot, align 4
  br label %cleanup26

cleanup26:                                        ; preds = %if.end25, %cleanup, %if.then
  call void @_ZNSt7__cxx1112basic_stringIcSt11char_traitsIcESaIcEED1Ev(ptr noundef nonnull align 8 dereferenceable(32) %storage) #14
  %16 = load i32, ptr %retval, align 4
  ret i32 %16

ehcleanup:                                        ; preds = %lpad11, %lpad
  call void @_ZNSt7__cxx1112basic_stringIcSt11char_traitsIcESaIcEED1Ev(ptr noundef nonnull align 8 dereferenceable(32) %storage) #14
  br label %eh.resume

eh.resume:                                        ; preds = %ehcleanup
  %exn = load ptr, ptr %exn.slot, align 8
  %sel = load i32, ptr %ehselector.slot, align 4
  %lpad.val = insertvalue { ptr, i32 } poison, ptr %exn, 0
  %lpad.val27 = insertvalue { ptr, i32 } %lpad.val, i32 %sel, 1
  resume { ptr, i32 } %lpad.val27
}