; Function Attrs: mustprogress uwtable
define dso_local noundef i32 @_ZNK3net22QuicCryptoServerConfig23ParseSourceAddressTokenERKNS0_6ConfigEN4base16BasicStringPieceINSt7__cxx1112basic_stringIcSt11char_traitsIcESaIcEEEEEPNS_19SourceAddressTokensE(ptr nocapture nonnull readnone align 8 %this, ptr nocapture noundef nonnull readonly align 8 dereferenceable(288) %config, ptr %token.coerce0, i64 %token.coerce1, ptr noundef %tokens) local_unnamed_addr #0 align 2 personality ptr @__gxx_personality_v0 {
entry:
  %storage = alloca %"class.std::__cxx11::basic_string", align 8
  %plaintext = alloca %"class.base::BasicStringPiece", align 8
  %source_address_token = alloca %"class.net::SourceAddressToken", align 8
  call void @_ZNSt7__cxx1112basic_stringIcSt11char_traitsIcESaIcEEC1Ev(ptr noundef nonnull align 8 dereferenceable(32) %storage) #20
  invoke void @_ZN4base16BasicStringPieceINSt7__cxx1112basic_stringIcSt11char_traitsIcESaIcEEEEC1Ev(ptr noundef nonnull align 8 dereferenceable(16) %plaintext)
          to label %invoke.cont unwind label %lpad

invoke.cont:                                      ; preds = %entry
  %source_address_token_boxer = getelementptr inbounds i8, ptr %config, i64 272
  %0 = load ptr, ptr %source_address_token_boxer, align 8
  %call = invoke noundef zeroext i1 @_ZNK3net17CryptoSecretBoxer5UnboxEN4base16BasicStringPieceINSt7__cxx1112basic_stringIcSt11char_traitsIcESaIcEEEEEPS8_PS9_(ptr noundef nonnull align 8 dereferenceable(64) %0, ptr %token.coerce0, i64 %token.coerce1, ptr noundef nonnull %storage, ptr noundef nonnull %plaintext)
          to label %invoke.cont2 unwind label %lpad

invoke.cont2:                                     ; preds = %invoke.cont
  br i1 %call, label %if.end, label %cleanup26

lpad:                                             ; preds = %if.then9, %invoke.cont5, %invoke.cont3, %if.end, %invoke.cont, %entry
  %1 = landingpad { ptr, i32 }
          cleanup
  br label %ehcleanup

if.end:                                           ; preds = %invoke.cont2
  %call4 = invoke noundef ptr @_ZNK4base16BasicStringPieceINSt7__cxx1112basic_stringIcSt11char_traitsIcESaIcEEEE4dataEv(ptr noundef nonnull align 8 dereferenceable(16) %plaintext)
          to label %invoke.cont3 unwind label %lpad

invoke.cont3:                                     ; preds = %if.end
  %call6 = invoke noundef i64 @_ZNK4base16BasicStringPieceINSt7__cxx1112basic_stringIcSt11char_traitsIcESaIcEEEE4sizeEv(ptr noundef nonnull align 8 dereferenceable(16) %plaintext)
          to label %invoke.cont5 unwind label %lpad

invoke.cont5:                                     ; preds = %invoke.cont3
  %conv = trunc i64 %call6 to i32
  %call8 = invoke noundef zeroext i1 @_ZN6google8protobuf11MessageLite14ParseFromArrayEPKvi(ptr noundef nonnull align 8 dereferenceable(8) %tokens, ptr noundef %call4, i32 noundef %conv)
          to label %invoke.cont7 unwind label %lpad

invoke.cont7:                                     ; preds = %invoke.cont5
  br i1 %call8, label %cleanup26, label %if.then9

if.then9:                                         ; preds = %invoke.cont7
  invoke void @_ZN3net18SourceAddressTokenC1Ev(ptr noundef nonnull align 8 dereferenceable(56) %source_address_token)
          to label %invoke.cont10 unwind label %lpad

invoke.cont10:                                    ; preds = %if.then9
  %call13 = invoke noundef ptr @_ZNK4base16BasicStringPieceINSt7__cxx1112basic_stringIcSt11char_traitsIcESaIcEEEE4dataEv(ptr noundef nonnull align 8 dereferenceable(16) %plaintext)
          to label %invoke.cont12 unwind label %lpad11

invoke.cont12:                                    ; preds = %invoke.cont10
  %call15 = invoke noundef i64 @_ZNK4base16BasicStringPieceINSt7__cxx1112basic_stringIcSt11char_traitsIcESaIcEEEE4sizeEv(ptr noundef nonnull align 8 dereferenceable(16) %plaintext)
          to label %invoke.cont14 unwind label %lpad11

invoke.cont14:                                    ; preds = %invoke.cont12
  %conv16 = trunc i64 %call15 to i32
  %call18 = invoke noundef zeroext i1 @_ZN6google8protobuf11MessageLite14ParseFromArrayEPKvi(ptr noundef nonnull align 8 dereferenceable(8) %source_address_token, ptr noundef %call13, i32 noundef %conv16)
          to label %invoke.cont17 unwind label %lpad11

invoke.cont17:                                    ; preds = %invoke.cont14
  br i1 %call18, label %if.end20, label %cleanup26.sink.split

lpad11:                                           ; preds = %invoke.cont21, %if.end20, %invoke.cont14, %invoke.cont12, %invoke.cont10
  %2 = landingpad { ptr, i32 }
          cleanup
  call void @_ZN3net18SourceAddressTokenD1Ev(ptr noundef nonnull align 8 dereferenceable(56) %source_address_token) #20
  br label %ehcleanup

if.end20:                                         ; preds = %invoke.cont17
  %tokens_.i = getelementptr inbounds i8, ptr %tokens, i64 32
  %call.i.i3 = invoke noundef ptr @_ZN6google8protobuf8internal20RepeatedPtrFieldBase3AddINS0_16RepeatedPtrFieldIN3net18SourceAddressTokenEE11TypeHandlerEEEPNT_4TypeESB_(ptr noundef nonnull align 8 dereferenceable(24) %tokens_.i, ptr noundef null)
          to label %invoke.cont21 unwind label %lpad11

invoke.cont21:                                    ; preds = %if.end20
  invoke void @_ZN3net18SourceAddressToken8CopyFromERKS0_(ptr noundef nonnull align 8 dereferenceable(56) %call.i.i3, ptr noundef nonnull align 8 dereferenceable(56) %source_address_token)
          to label %cleanup26.sink.split unwind label %lpad11

cleanup26.sink.split:                             ; preds = %invoke.cont17, %invoke.cont21
  %retval.1.ph = phi i32 [ 0, %invoke.cont21 ], [ 16, %invoke.cont17 ]
  call void @_ZN3net18SourceAddressTokenD1Ev(ptr noundef nonnull align 8 dereferenceable(56) %source_address_token) #20
  br label %cleanup26

cleanup26:                                        ; preds = %cleanup26.sink.split, %invoke.cont7, %invoke.cont2
  %retval.1 = phi i32 [ 15, %invoke.cont2 ], [ 0, %invoke.cont7 ], [ %retval.1.ph, %cleanup26.sink.split ]
  call void @_ZNSt7__cxx1112basic_stringIcSt11char_traitsIcESaIcEED1Ev(ptr noundef nonnull align 8 dereferenceable(32) %storage) #20
  ret i32 %retval.1

ehcleanup:                                        ; preds = %lpad11, %lpad
  %.pn = phi { ptr, i32 } [ %2, %lpad11 ], [ %1, %lpad ]
  call void @_ZNSt7__cxx1112basic_stringIcSt11char_traitsIcESaIcEED1Ev(ptr noundef nonnull align 8 dereferenceable(32) %storage) #20
  resume { ptr, i32 } %.pn
}